target datalayout = "e-m:e-p270:32:32-p271:32:32-p272:64:64-i64:64-i128:128-f80:128-n8:16:32:64-S128"
target triple = "x86_64-pc-linux-gnu"

%class.dtObstacleAvoidanceQuery = type <{ %struct.dtObstacleAvoidanceParams, float, float, float, i32, [4 x i8], ptr, i32, i32, ptr, i32, [4 x i8] }>
%struct.dtObstacleAvoidanceParams = type { float, float, float, float, float, float, i8, i8, i8, i8 }
%struct.dtObstacleCircle = type { [3 x float], [3 x float], [3 x float], float, [3 x float], [3 x float] }
%struct.dtObstacleSegment = type { [3 x float], [3 x float], i8 }

; Function Attrs: mustprogress nounwind uwtable
define linkonce_odr noundef float @_Z11dtMathSqrtff(float noundef %0) #2 comdat {
  %2 = alloca float, align 4
  store float %0, ptr %2, align 4
  %3 = load float, ptr %2, align 4
  %4 = call float @sqrtf(float noundef %3) #8
  ret float %4
}

; Function Attrs: mustprogress nounwind uwtable
define linkonce_odr noundef float @_Z5dtSqrIfET_S0_(float noundef %0) #2 comdat {
  %2 = alloca float, align 4
  store float %0, ptr %2, align 4
  %3 = load float, ptr %2, align 4
  %4 = load float, ptr %2, align 4
  %5 = fmul float %3, %4
  ret float %5
}

; Function Attrs: mustprogress nounwind uwtable
define linkonce_odr noundef float @_Z11dtTriArea2DPKfS0_S0_(ptr noundef %0, ptr noundef %1, ptr noundef %2) #2 comdat {
  %4 = alloca ptr, align 8
  %5 = alloca ptr, align 8
  %6 = alloca ptr, align 8
  %7 = alloca float, align 4
  %8 = alloca float, align 4
  %9 = alloca float, align 4
  %10 = alloca float, align 4
  store ptr %0, ptr %4, align 8
  store ptr %1, ptr %5, align 8
  store ptr %2, ptr %6, align 8
  %11 = load ptr, ptr %5, align 8
  %12 = getelementptr inbounds float, ptr %11, i64 0
  %13 = load float, ptr %12, align 4
  %14 = load ptr, ptr %4, align 8
  %15 = getelementptr inbounds float, ptr %14, i64 0
  %16 = load float, ptr %15, align 4
  %17 = fsub float %13, %16
  store float %17, ptr %7, align 4
  %18 = load ptr, ptr %5, align 8
  %19 = getelementptr inbounds float, ptr %18, i64 2
  %20 = load float, ptr %19, align 4
  %21 = load ptr, ptr %4, align 8
  %22 = getelementptr inbounds float, ptr %21, i64 2
  %23 = load float, ptr %22, align 4
  %24 = fsub float %20, %23
  store float %24, ptr %8, align 4
  %25 = load ptr, ptr %6, align 8
  %26 = getelementptr inbounds float, ptr %25, i64 0
  %27 = load float, ptr %26, align 4
  %28 = load ptr, ptr %4, align 8
  %29 = getelementptr inbounds float, ptr %28, i64 0
  %30 = load float, ptr %29, align 4
  %31 = fsub float %27, %30
  store float %31, ptr %9, align 4
  %32 = load ptr, ptr %6, align 8
  %33 = getelementptr inbounds float, ptr %32, i64 2
  %34 = load float, ptr %33, align 4
  %35 = load ptr, ptr %4, align 8
  %36 = getelementptr inbounds float, ptr %35, i64 2
  %37 = load float, ptr %36, align 4
  %38 = fsub float %34, %37
  store float %38, ptr %10, align 4
  %39 = load float, ptr %9, align 4
  %40 = load float, ptr %8, align 4
  %41 = load float, ptr %7, align 4
  %42 = load float, ptr %10, align 4
  %43 = fmul float %41, %42
  %44 = fneg float %43
  %45 = call float @llvm.fmuladd.f32(float %39, float %40, float %44)
  ret float %45
}

; Function Attrs: mustprogress uwtable
define linkonce_odr void @_Z12dtVnormalizePf(ptr noundef %0) #0 comdat {
  %2 = alloca ptr, align 8
  %3 = alloca float, align 4
  store ptr %0, ptr %2, align 8
  %4 = load ptr, ptr %2, align 8
  %5 = getelementptr inbounds float, ptr %4, i64 0
  %6 = load float, ptr %5, align 4
  %7 = call noundef float @_Z5dtSqrIfET_S0_(float noundef %6)
  %8 = load ptr, ptr %2, align 8
  %9 = getelementptr inbounds float, ptr %8, i64 1
  %10 = load float, ptr %9, align 4
  %11 = call noundef float @_Z5dtSqrIfET_S0_(float noundef %10)
  %12 = fadd float %7, %11
  %13 = load ptr, ptr %2, align 8
  %14 = getelementptr inbounds float, ptr %13, i64 2
  %15 = load float, ptr %14, align 4
  %16 = call noundef float @_Z5dtSqrIfET_S0_(float noundef %15)
  %17 = fadd float %12, %16
  %18 = call noundef float @_Z11dtMathSqrtff(float noundef %17)
  %19 = fdiv float 1.000000e+00, %18
  store float %19, ptr %3, align 4
  %20 = load float, ptr %3, align 4
  %21 = load ptr, ptr %2, align 8
  %22 = getelementptr inbounds float, ptr %21, i64 0
  %23 = load float, ptr %22, align 4
  %24 = fmul float %23, %20
  store float %24, ptr %22, align 4
  %25 = load float, ptr %3, align 4
  %26 = load ptr, ptr %2, align 8
  %27 = getelementptr inbounds float, ptr %26, i64 1
  %28 = load float, ptr %27, align 4
  %29 = fmul float %28, %25
  store float %29, ptr %27, align 4
  %30 = load float, ptr %3, align 4
  %31 = load ptr, ptr %2, align 8
  %32 = getelementptr inbounds float, ptr %31, i64 2
  %33 = load float, ptr %32, align 4
  %34 = fmul float %33, %30
  store float %34, ptr %32, align 4
  ret void
}

; Function Attrs: mustprogress nounwind uwtable
define linkonce_odr void @_Z6dtVsubPfPKfS1_(ptr noundef %0, ptr noundef %1, ptr noundef %2) #2 comdat {
  %4 = alloca ptr, align 8
  %5 = alloca ptr, align 8
  %6 = alloca ptr, align 8
  store ptr %0, ptr %4, align 8
  store ptr %1, ptr %5, align 8
  store ptr %2, ptr %6, align 8
  %7 = load ptr, ptr %5, align 8
  %8 = getelementptr inbounds float, ptr %7, i64 0
  %9 = load float, ptr %8, align 4
  %10 = load ptr, ptr %6, align 8
  %11 = getelementptr inbounds float, ptr %10, i64 0
  %12 = load float, ptr %11, align 4
  %13 = fsub float %9, %12
  %14 = load ptr, ptr %4, align 8
  %15 = getelementptr inbounds float, ptr %14, i64 0
  store float %13, ptr %15, align 4
  %16 = load ptr, ptr %5, align 8
  %17 = getelementptr inbounds float, ptr %16, i64 1
  %18 = load float, ptr %17, align 4
  %19 = load ptr, ptr %6, align 8
  %20 = getelementptr inbounds float, ptr %19, i64 1
  %21 = load float, ptr %20, align 4
  %22 = fsub float %18, %21
  %23 = load ptr, ptr %4, align 8
  %24 = getelementptr inbounds float, ptr %23, i64 1
  store float %22, ptr %24, align 4
  %25 = load ptr, ptr %5, align 8
  %26 = getelementptr inbounds float, ptr %25, i64 2
  %27 = load float, ptr %26, align 4
  %28 = load ptr, ptr %6, align 8
  %29 = getelementptr inbounds float, ptr %28, i64 2
  %30 = load float, ptr %29, align 4
  %31 = fsub float %27, %30
  %32 = load ptr, ptr %4, align 8
  %33 = getelementptr inbounds float, ptr %32, i64 2
  store float %31, ptr %33, align 4
  ret void
}

; Function Attrs: mustprogress uwtable
define void @_ZN24dtObstacleAvoidanceQuery7prepareEPKfS1_(ptr noundef nonnull align 8 dereferenceable(76) %0, ptr noundef %1, ptr noundef %2) #0 align 2 {
  %4 = alloca ptr, align 8
  %5 = alloca ptr, align 8
  %6 = alloca ptr, align 8
  %7 = alloca i32, align 4
  %8 = alloca ptr, align 8
  %9 = alloca ptr, align 8
  %10 = alloca ptr, align 8
  %11 = alloca [3 x float], align 4
  %12 = alloca [3 x float], align 4
  %13 = alloca float, align 4
  %14 = alloca i32, align 4
  %15 = alloca ptr, align 8
  %16 = alloca float, align 4
  %17 = alloca float, align 4
  store ptr %0, ptr %4, align 8
  store ptr %1, ptr %5, align 8
  store ptr %2, ptr %6, align 8
  %18 = load ptr, ptr %4, align 8
  store i32 0, ptr %7, align 4
  br label %19

19:                                               ; preds = %88, %3
  %20 = load i32, ptr %7, align 4
  %21 = getelementptr inbounds %class.dtObstacleAvoidanceQuery, ptr %18, i32 0, i32 7
  %22 = load i32, ptr %21, align 8
  %23 = icmp slt i32 %20, %22
  br i1 %23, label %24, label %91

24:                                               ; preds = %19
  %25 = getelementptr inbounds %class.dtObstacleAvoidanceQuery, ptr %18, i32 0, i32 6
  %26 = load ptr, ptr %25, align 8
  %27 = load i32, ptr %7, align 4
  %28 = sext i32 %27 to i64
  %29 = getelementptr inbounds %struct.dtObstacleCircle, ptr %26, i64 %28
  store ptr %29, ptr %8, align 8
  %30 = load ptr, ptr %5, align 8
  store ptr %30, ptr %9, align 8
  %31 = load ptr, ptr %8, align 8
  %32 = getelementptr inbounds %struct.dtObstacleCircle, ptr %31, i32 0, i32 0
  %33 = getelementptr inbounds [3 x float], ptr %32, i64 0, i64 0
  store ptr %33, ptr %10, align 8
  call void @llvm.memset.p0.i64(ptr align 4 %11, i8 0, i64 12, i1 false)
  %34 = load ptr, ptr %8, align 8
  %35 = getelementptr inbounds %struct.dtObstacleCircle, ptr %34, i32 0, i32 4
  %36 = getelementptr inbounds [3 x float], ptr %35, i64 0, i64 0
  %37 = load ptr, ptr %10, align 8
  %38 = load ptr, ptr %9, align 8
  call void @_Z6dtVsubPfPKfS1_(ptr noundef %36, ptr noundef %37, ptr noundef %38)
  %39 = load ptr, ptr %8, align 8
  %40 = getelementptr inbounds %struct.dtObstacleCircle, ptr %39, i32 0, i32 4
  %41 = getelementptr inbounds [3 x float], ptr %40, i64 0, i64 0
  call void @_Z12dtVnormalizePf(ptr noundef %41)
  %42 = getelementptr inbounds [3 x float], ptr %12, i64 0, i64 0
  %43 = load ptr, ptr %8, align 8
  %44 = getelementptr inbounds %struct.dtObstacleCircle, ptr %43, i32 0, i32 2
  %45 = getelementptr inbounds [3 x float], ptr %44, i64 0, i64 0
  %46 = load ptr, ptr %6, align 8
  call void @_Z6dtVsubPfPKfS1_(ptr noundef %42, ptr noundef %45, ptr noundef %46)
  %47 = getelementptr inbounds [3 x float], ptr %11, i64 0, i64 0
  %48 = load ptr, ptr %8, align 8
  %49 = getelementptr inbounds %struct.dtObstacleCircle, ptr %48, i32 0, i32 4
  %50 = getelementptr inbounds [3 x float], ptr %49, i64 0, i64 0
  %51 = getelementptr inbounds [3 x float], ptr %12, i64 0, i64 0
  %52 = call noundef float @_Z11dtTriArea2DPKfS0_S0_(ptr noundef %47, ptr noundef %50, ptr noundef %51)
  store float %52, ptr %13, align 4
  %53 = load float, ptr %13, align 4
  %54 = fcmp olt float %53, 0x3F847AE140000000
  br i1 %54, label %55, label %71

55:                                               ; preds = %24
  %56 = load ptr, ptr %8, align 8
  %57 = getelementptr inbounds %struct.dtObstacleCircle, ptr %56, i32 0, i32 4
  %58 = getelementptr inbounds [3 x float], ptr %57, i64 0, i64 2
  %59 = load float, ptr %58, align 4
  %60 = fneg float %59
  %61 = load ptr, ptr %8, align 8
  %62 = getelementptr inbounds %struct.dtObstacleCircle, ptr %61, i32 0, i32 5
  %63 = getelementptr inbounds [3 x float], ptr %62, i64 0, i64 0
  store float %60, ptr %63, align 4
  %64 = load ptr, ptr %8, align 8
  %65 = getelementptr inbounds %struct.dtObstacleCircle, ptr %64, i32 0, i32 4
  %66 = getelementptr inbounds [3 x float], ptr %65, i64 0, i64 0
  %67 = load float, ptr %66, align 4
  %68 = load ptr, ptr %8, align 8
  %69 = getelementptr inbounds %struct.dtObstacleCircle, ptr %68, i32 0, i32 5
  %70 = getelementptr inbounds [3 x float], ptr %69, i64 0, i64 2
  store float %67, ptr %70, align 4
  br label %87

71:                                               ; preds = %24
  %72 = load ptr, ptr %8, align 8
  %73 = getelementptr inbounds %struct.dtObstacleCircle, ptr %72, i32 0, i32 4
  %74 = getelementptr inbounds [3 x float], ptr %73, i64 0, i64 2
  %75 = load float, ptr %74, align 4
  %76 = load ptr, ptr %8, align 8
  %77 = getelementptr inbounds %struct.dtObstacleCircle, ptr %76, i32 0, i32 5
  %78 = getelementptr inbounds [3 x float], ptr %77, i64 0, i64 0
  store float %75, ptr %78, align 4
  %79 = load ptr, ptr %8, align 8
  %80 = getelementptr inbounds %struct.dtObstacleCircle, ptr %79, i32 0, i32 4
  %81 = getelementptr inbounds [3 x float], ptr %80, i64 0, i64 0
  %82 = load float, ptr %81, align 4
  %83 = fneg float %82
  %84 = load ptr, ptr %8, align 8
  %85 = getelementptr inbounds %struct.dtObstacleCircle, ptr %84, i32 0, i32 5
  %86 = getelementptr inbounds [3 x float], ptr %85, i64 0, i64 2
  store float %83, ptr %86, align 4
  br label %87

87:                                               ; preds = %71, %55
  br label %88

88:                                               ; preds = %87
  %89 = load i32, ptr %7, align 4
  %90 = add nsw i32 %89, 1
  store i32 %90, ptr %7, align 4
  br label %19, !llvm.loop !7

91:                                               ; preds = %19
  store i32 0, ptr %14, align 4
  br label %92

92:                                               ; preds = %116, %91
  %93 = load i32, ptr %14, align 4
  %94 = getelementptr inbounds %class.dtObstacleAvoidanceQuery, ptr %18, i32 0, i32 10
  %95 = load i32, ptr %94, align 8
  %96 = icmp slt i32 %93, %95
  br i1 %96, label %97, label %119

97:                                               ; preds = %92
  %98 = getelementptr inbounds %class.dtObstacleAvoidanceQuery, ptr %18, i32 0, i32 9
  %99 = load ptr, ptr %98, align 8
  %100 = load i32, ptr %14, align 4
  %101 = sext i32 %100 to i64
  %102 = getelementptr inbounds %struct.dtObstacleSegment, ptr %99, i64 %101
  store ptr %102, ptr %15, align 8
  store float 0x3F847AE140000000, ptr %16, align 4
  %103 = load ptr, ptr %5, align 8
  %104 = load ptr, ptr %15, align 8
  %105 = getelementptr inbounds %struct.dtObstacleSegment, ptr %104, i32 0, i32 0
  %106 = getelementptr inbounds [3 x float], ptr %105, i64 0, i64 0
  %107 = load ptr, ptr %15, align 8
  %108 = getelementptr inbounds %struct.dtObstacleSegment, ptr %107, i32 0, i32 1
  %109 = getelementptr inbounds [3 x float], ptr %108, i64 0, i64 0
  %110 = call noundef float @_Z20dtDistancePtSegSqr2DPKfS0_S0_Rf(ptr noundef %103, ptr noundef %106, ptr noundef %109, ptr noundef nonnull align 4 dereferenceable(4) %17)
  %111 = call noundef float @_Z5dtSqrIfET_S0_(float noundef 0x3F847AE140000000)
  %112 = fcmp olt float %110, %111
  %113 = load ptr, ptr %15, align 8
  %114 = getelementptr inbounds %struct.dtObstacleSegment, ptr %113, i32 0, i32 2
  %115 = zext i1 %112 to i8
  store i8 %115, ptr %114, align 4
  br label %116

116:                                              ; preds = %97
  %117 = load i32, ptr %14, align 4
  %118 = add nsw i32 %117, 1
  store i32 %118, ptr %14, align 4
  br label %92, !llvm.loop !8

119:                                              ; preds = %92
  ret void
}