; Function Attrs: mustprogress uwtable
define void @_ZN24dtObstacleAvoidanceQuery7prepareEPKfS1_(ptr noundef nonnull readonly align 8 captures(none) dereferenceable(76) %0, ptr noundef %1, ptr noundef readonly captures(none) %2) local_unnamed_addr #0 align 2 {
  %4 = alloca float, align 4
  %5 = getelementptr inbounds nuw i8, ptr %0, i64 56
  %6 = load i32, ptr %5, align 8
  %7 = icmp sgt i32 %6, 0
  br i1 %7, label %.lr.ph, label %.preheader

.lr.ph:                                           ; preds = %3
  %8 = getelementptr inbounds nuw i8, ptr %0, i64 48
  %9 = getelementptr inbounds nuw i8, ptr %1, i64 4
  %10 = getelementptr inbounds nuw i8, ptr %1, i64 8
  %11 = getelementptr inbounds nuw i8, ptr %2, i64 8
  br label %16

.preheader:                                       ; preds = %16, %3
  %12 = getelementptr inbounds nuw i8, ptr %0, i64 72
  %13 = load i32, ptr %12, align 8
  %14 = icmp sgt i32 %13, 0
  br i1 %14, label %.lr.ph34, label %._crit_edge

.lr.ph34:                                         ; preds = %.preheader
  %15 = getelementptr inbounds nuw i8, ptr %0, i64 64
  br label %61

16:                                               ; preds = %.lr.ph, %16
  %indvars.iv = phi i64 [ 0, %.lr.ph ], [ %indvars.iv.next, %16 ]
  %17 = load ptr, ptr %8, align 8
  %18 = getelementptr inbounds nuw %struct.dtObstacleCircle, ptr %17, i64 %indvars.iv
  %19 = getelementptr inbounds nuw i8, ptr %18, i64 40
  %20 = load float, ptr %18, align 4
  %21 = load float, ptr %1, align 4
  %22 = fsub float %20, %21
  store float %22, ptr %19, align 4
  %23 = getelementptr inbounds nuw i8, ptr %18, i64 4
  %24 = load float, ptr %23, align 4
  %25 = load float, ptr %9, align 4
  %26 = fsub float %24, %25
  %27 = getelementptr inbounds nuw i8, ptr %18, i64 44
  store float %26, ptr %27, align 4
  %28 = getelementptr inbounds nuw i8, ptr %18, i64 8
  %29 = load float, ptr %28, align 4
  %30 = load float, ptr %10, align 4
  %31 = fsub float %29, %30
  %32 = getelementptr inbounds nuw i8, ptr %18, i64 48
  %33 = fmul float %22, %22
  %34 = fmul float %26, %26
  %35 = fadd float %33, %34
  %36 = fmul float %31, %31
  %37 = fadd float %35, %36
  %sqrt.i = tail call float @llvm.sqrt.f32(float %37)
  %38 = fdiv float 1.000000e+00, %sqrt.i
  %39 = fmul float %22, %38
  store float %39, ptr %19, align 4
  %40 = fmul float %26, %38
  store float %40, ptr %27, align 4
  %41 = fmul float %31, %38
  store float %41, ptr %32, align 4
  %42 = getelementptr inbounds nuw i8, ptr %18, i64 24
  %43 = load float, ptr %42, align 4
  %44 = load float, ptr %2, align 4
  %45 = fsub float %43, %44
  %46 = getelementptr inbounds nuw i8, ptr %18, i64 32
  %47 = load float, ptr %46, align 4
  %48 = load float, ptr %11, align 4
  %49 = fsub float %47, %48
  %50 = fneg float %49
  %51 = fmul float %39, %50
  %52 = tail call noundef float @llvm.fmuladd.f32(float %45, float %41, float %51)
  %53 = fcmp olt float %52, 0x3F847AE140000000
  %54 = fneg float %41
  %55 = fneg float %39
  %.sink39 = select i1 %53, float %54, float %41
  %.sink = select i1 %53, float %39, float %55
  %56 = getelementptr inbounds nuw i8, ptr %18, i64 52
  store float %.sink39, ptr %56, align 4
  %57 = getelementptr inbounds nuw i8, ptr %18, i64 60
  store float %.sink, ptr %57, align 4
  %indvars.iv.next = add nuw nsw i64 %indvars.iv, 1
  %58 = load i32, ptr %5, align 8
  %59 = sext i32 %58 to i64
  %60 = icmp slt i64 %indvars.iv.next, %59
  br i1 %60, label %16, label %.preheader, !llvm.loop !7

61:                                               ; preds = %.lr.ph34, %61
  %indvars.iv36 = phi i64 [ 0, %.lr.ph34 ], [ %indvars.iv.next37, %61 ]
  %62 = load ptr, ptr %15, align 8
  %63 = getelementptr inbounds nuw %struct.dtObstacleSegment, ptr %62, i64 %indvars.iv36
  %64 = getelementptr inbounds nuw i8, ptr %63, i64 12
  %65 = call noundef float @_Z20dtDistancePtSegSqr2DPKfS0_S0_Rf(ptr noundef %1, ptr noundef %63, ptr noundef nonnull %64, ptr noundef nonnull align 4 dereferenceable(4) %4)
  %66 = fcmp olt float %65, 0x3F1A36E2E0000000
  %67 = getelementptr inbounds nuw i8, ptr %63, i64 24
  %68 = zext i1 %66 to i8
  store i8 %68, ptr %67, align 4
  %indvars.iv.next37 = add nuw nsw i64 %indvars.iv36, 1
  %69 = load i32, ptr %12, align 8
  %70 = sext i32 %69 to i64
  %71 = icmp slt i64 %indvars.iv.next37, %70
  br i1 %71, label %61, label %._crit_edge, !llvm.loop !8

._crit_edge:                                      ; preds = %61, %.preheader
  ret void
}